target datalayout = "e-m:e-p270:32:32-p271:32:32-p272:64:64-i64:64-i128:128-f80:128-n8:16:32:64-S128"
target triple = "x86_64-pc-linux-gnu"

%struct.FunctionCallInfoBaseData = type { ptr, ptr, ptr, i32, i8, i16, [0 x %struct.NullableDatum] }
%struct.NullableDatum = type { i64, i8 }

@.str.1 = private unnamed_addr constant [10 x i8] c"genfile.c\00", align 1
@.str.18 = private unnamed_addr constant [36 x i8] c"requested length cannot be negative\00", align 1
@__func__.pg_read_binary_file_common = private unnamed_addr constant [27 x i8] c"pg_read_binary_file_common\00", align 1

; Function Attrs: inlinehint nounwind uwtable
define internal i64 @PointerGetDatum(ptr noundef %0) #3 {
  %2 = alloca ptr, align 8
  store ptr %0, ptr %2, align 8
  %3 = load ptr, ptr %2, align 8
  %4 = ptrtoint ptr %3 to i64
  ret i64 %4
}

; Function Attrs: nounwind uwtable
define internal ptr @pg_read_binary_file_common(ptr noundef %0, i64 noundef %1, i64 noundef %2, i1 noundef zeroext %3, i1 noundef zeroext %4) #0 {
  %6 = alloca ptr, align 8
  %7 = alloca i64, align 8
  %8 = alloca i64, align 8
  %9 = alloca i8, align 1
  %10 = alloca i8, align 1
  store ptr %0, ptr %6, align 8
  store i64 %1, ptr %7, align 8
  store i64 %2, ptr %8, align 8
  %11 = zext i1 %3 to i8
  store i8 %11, ptr %9, align 1
  %12 = zext i1 %4 to i8
  store i8 %12, ptr %10, align 1
  %13 = load i8, ptr %9, align 1, !range !4, !noundef !5
  %14 = trunc i8 %13 to i1
  br i1 %14, label %15, label %16

15:                                               ; preds = %5
  br label %31

16:                                               ; preds = %5
  %17 = load i64, ptr %8, align 8
  %18 = icmp slt i64 %17, 0
  br i1 %18, label %19, label %30

19:                                               ; preds = %16
  br label %20

20:                                               ; preds = %19
  br i1 true, label %21, label %23

21:                                               ; preds = %20
  %22 = call zeroext i1 @errstart_cold(i32 noundef 21, ptr noundef null) #10
  br i1 %22, label %25, label %28

23:                                               ; preds = %20
  %24 = call zeroext i1 @errstart(i32 noundef 21, ptr noundef null)
  br i1 %24, label %25, label %28

25:                                               ; preds = %23, %21
  %26 = call i32 @errcode(i32 noundef 50856066)
  %27 = call i32 (ptr, ...) @errmsg(ptr noundef @.str.18)
  call void @errfinish(ptr noundef @.str.1, i32 noundef 269, ptr noundef @__func__.pg_read_binary_file_common)
  br label %28

28:                                               ; preds = %25, %23, %21
  unreachable

29:                                               ; No predecessors!
  br label %30

30:                                               ; preds = %29, %16
  br label %31

31:                                               ; preds = %30, %15
  %32 = load ptr, ptr %6, align 8
  %33 = call ptr @convert_and_check_filename(ptr noundef %32)
  %34 = load i64, ptr %7, align 8
  %35 = load i64, ptr %8, align 8
  %36 = load i8, ptr %10, align 1, !range !4, !noundef !5
  %37 = trunc i8 %36 to i1
  %38 = call ptr @read_binary_file(ptr noundef %33, i64 noundef %34, i64 noundef %35, i1 noundef zeroext %37)
  ret ptr %38
}

; Function Attrs: inlinehint nounwind uwtable
define internal zeroext i1 @DatumGetBool(i64 noundef %0) #3 {
  %2 = alloca i64, align 8
  store i64 %0, ptr %2, align 8
  %3 = load i64, ptr %2, align 8
  %4 = icmp ne i64 %3, 0
  ret i1 %4
}

; Function Attrs: inlinehint nounwind uwtable
define internal ptr @DatumGetPointer(i64 noundef %0) #3 {
  %2 = alloca i64, align 8
  store i64 %0, ptr %2, align 8
  %3 = load i64, ptr %2, align 8
  %4 = inttoptr i64 %3 to ptr
  ret ptr %4
}

; Function Attrs: nounwind uwtable
define dso_local i64 @pg_read_binary_file_all_missing(ptr noundef %0) #0 {
  %2 = alloca i64, align 8
  %3 = alloca ptr, align 8
  %4 = alloca ptr, align 8
  %5 = alloca i8, align 1
  %6 = alloca ptr, align 8
  %7 = alloca i32, align 4
  store ptr %0, ptr %3, align 8
  call void @llvm.lifetime.start.p0(i64 8, ptr %4) #9
  %8 = load ptr, ptr %3, align 8
  %9 = getelementptr inbounds nuw %struct.FunctionCallInfoBaseData, ptr %8, i32 0, i32 6
  %10 = getelementptr inbounds [0 x %struct.NullableDatum], ptr %9, i64 0, i64 0
  %11 = getelementptr inbounds nuw %struct.NullableDatum, ptr %10, i32 0, i32 0
  %12 = load i64, ptr %11, align 8
  %13 = call ptr @DatumGetPointer(i64 noundef %12)
  %14 = call ptr @pg_detoast_datum_packed(ptr noundef %13)
  store ptr %14, ptr %4, align 8
  call void @llvm.lifetime.start.p0(i64 1, ptr %5) #9
  %15 = load ptr, ptr %3, align 8
  %16 = getelementptr inbounds nuw %struct.FunctionCallInfoBaseData, ptr %15, i32 0, i32 6
  %17 = getelementptr inbounds [0 x %struct.NullableDatum], ptr %16, i64 0, i64 1
  %18 = getelementptr inbounds nuw %struct.NullableDatum, ptr %17, i32 0, i32 0
  %19 = load i64, ptr %18, align 8
  %20 = call zeroext i1 @DatumGetBool(i64 noundef %19)
  %21 = zext i1 %20 to i8
  store i8 %21, ptr %5, align 1
  call void @llvm.lifetime.start.p0(i64 8, ptr %6) #9
  %22 = load ptr, ptr %4, align 8
  %23 = load i8, ptr %5, align 1, !range !4, !noundef !5
  %24 = trunc i8 %23 to i1
  %25 = call ptr @pg_read_binary_file_common(ptr noundef %22, i64 noundef 0, i64 noundef -1, i1 noundef zeroext true, i1 noundef zeroext %24)
  store ptr %25, ptr %6, align 8
  %26 = load ptr, ptr %6, align 8
  %27 = icmp ne ptr %26, null
  br i1 %27, label %34, label %28

28:                                               ; preds = %1
  br label %29

29:                                               ; preds = %28
  %30 = load ptr, ptr %3, align 8
  %31 = getelementptr inbounds nuw %struct.FunctionCallInfoBaseData, ptr %30, i32 0, i32 4
  store i8 1, ptr %31, align 4
  store i64 0, ptr %2, align 8
  store i32 1, ptr %7, align 4
  br label %37

32:                                               ; No predecessors!
  br label %33

33:                                               ; preds = %32
  br label %34

34:                                               ; preds = %33, %1
  %35 = load ptr, ptr %6, align 8
  %36 = call i64 @PointerGetDatum(ptr noundef %35)
  store i64 %36, ptr %2, align 8
  store i32 1, ptr %7, align 4
  br label %37

37:                                               ; preds = %34, %29
  call void @llvm.lifetime.end.p0(i64 8, ptr %6) #9
  call void @llvm.lifetime.end.p0(i64 1, ptr %5) #9
  call void @llvm.lifetime.end.p0(i64 8, ptr %4) #9
  %38 = load i64, ptr %2, align 8
  ret i64 %38
}