; Function Attrs: nounwind uwtable
define dso_local i64 @pg_read_binary_file_all_missing(ptr noundef captures(none) %0) local_unnamed_addr #0 {
  %2 = getelementptr inbounds nuw i8, ptr %0, i64 32
  %3 = load i64, ptr %2, align 8
  %4 = inttoptr i64 %3 to ptr
  %5 = tail call ptr @pg_detoast_datum_packed(ptr noundef %4) #9
  %6 = getelementptr inbounds nuw i8, ptr %0, i64 48
  %7 = load i64, ptr %6, align 8
  %8 = icmp ne i64 %7, 0
  %9 = tail call fastcc ptr @convert_and_check_filename(ptr noundef %5)
  %10 = tail call fastcc ptr @read_binary_file(ptr noundef %9, i64 noundef 0, i64 noundef -1, i1 noundef zeroext %8)
  %.not = icmp eq ptr %10, null
  br i1 %.not, label %11, label %13

11:                                               ; preds = %1
  %12 = getelementptr inbounds nuw i8, ptr %0, i64 28
  store i8 1, ptr %12, align 4
  br label %15

13:                                               ; preds = %1
  %14 = ptrtoint ptr %10 to i64
  br label %15

15:                                               ; preds = %13, %11
  %.0 = phi i64 [ %14, %13 ], [ 0, %11 ]
  ret i64 %.0
}